; Function Attrs: mustprogress nofree norecurse nounwind willreturn memory(argmem: readwrite) uwtable
define void @_ZN7rocksdb18WriteBufferManager15ScheduleFreeMemEm(ptr noundef nonnull align 8 captures(none) dereferenceable(160) %0, i64 noundef %1) local_unnamed_addr #5 align 2 {
  %3 = load atomic i64, ptr %0 monotonic, align 8
  %.not = icmp eq i64 %3, 0
  br i1 %.not, label %7, label %4

4:                                                ; preds = %2
  %5 = getelementptr inbounds nuw i8, ptr %0, i64 24
  %6 = atomicrmw sub ptr %5, i64 %1 monotonic, align 8
  br label %7

7:                                                ; preds = %4, %2
  ret void
}